; ModuleID = '31/1893.c'
source_filename = "31/1893.c"
target datalayout = "e-m:e-p270:32:32-p271:32:32-p272:64:64-i64:64-f80:128-n8:16:32:64-S128"
target triple = "x86_64-pc-linux-gnu"

%struct.student = type { [10 x i8], [20 x i8], [2 x i8], i32, [10 x i8], [20 x i8], %struct.student* }

@.str = private unnamed_addr constant [3 x i8] c"%s\00", align 1
@.str.1 = private unnamed_addr constant [4 x i8] c"end\00", align 1
@.str.2 = private unnamed_addr constant [3 x i8] c"%d\00", align 1
@.str.3 = private unnamed_addr constant [19 x i8] c"%s %s %s %d %s %s\0A\00", align 1

; Function Attrs: noinline nounwind uwtable
define dso_local i32 @main() #0 {
  %1 = alloca i32, align 4
  %2 = alloca i32, align 4
  %3 = alloca i32, align 4
  %4 = alloca %struct.student*, align 8
  %5 = alloca %struct.student*, align 8
  %6 = alloca %struct.student*, align 8
  %7 = alloca %struct.student*, align 8
  %8 = alloca %struct.student*, align 8
  %9 = alloca %struct.student*, align 8
  store i32 0, i32* %1, align 4
  store i32 0, i32* %3, align 4
  store i32 1, i32* %2, align 4
  br label %10

10:                                               ; preds = %64, %0
  %11 = load i32, i32* %2, align 4
  %12 = icmp sle i32 %11, 10000
  br i1 %12, label %13, label %67

13:                                               ; preds = %10
  %14 = call noalias i8* @malloc(i64 80) #4
  %15 = bitcast i8* %14 to %struct.student*
  store %struct.student* %15, %struct.student** %5, align 8
  %16 = load %struct.student*, %struct.student** %5, align 8
  %17 = getelementptr inbounds %struct.student, %struct.student* %16, i32 0, i32 0
  %18 = getelementptr inbounds [10 x i8], [10 x i8]* %17, i64 0, i64 0
  %19 = call i32 (i8*, ...) @__isoc99_scanf(i8* getelementptr inbounds ([3 x i8], [3 x i8]* @.str, i64 0, i64 0), i8* %18)
  %20 = load %struct.student*, %struct.student** %5, align 8
  %21 = getelementptr inbounds %struct.student, %struct.student* %20, i32 0, i32 0
  %22 = getelementptr inbounds [10 x i8], [10 x i8]* %21, i64 0, i64 0
  %23 = call i32 @strcmp(i8* %22, i8* getelementptr inbounds ([4 x i8], [4 x i8]* @.str.1, i64 0, i64 0)) #5
  %24 = icmp eq i32 %23, 0
  br i1 %24, label %25, label %27

25:                                               ; preds = %13
  %26 = load %struct.student*, %struct.student** %9, align 8
  store %struct.student* %26, %struct.student** %4, align 8
  br label %67

27:                                               ; preds = %13
  %28 = load i32, i32* %2, align 4
  %29 = icmp eq i32 %28, 1
  br i1 %29, label %30, label %35

30:                                               ; preds = %27
  %31 = load %struct.student*, %struct.student** %5, align 8
  %32 = getelementptr inbounds %struct.student, %struct.student* %31, i32 0, i32 6
  store %struct.student* null, %struct.student** %32, align 8
  %33 = load %struct.student*, %struct.student** %5, align 8
  store %struct.student* %33, %struct.student** %6, align 8
  %34 = load %struct.student*, %struct.student** %5, align 8
  store %struct.student* %34, %struct.student** %9, align 8
  br label %41

35:                                               ; preds = %27
  %36 = load %struct.student*, %struct.student** %6, align 8
  %37 = load %struct.student*, %struct.student** %5, align 8
  %38 = getelementptr inbounds %struct.student, %struct.student* %37, i32 0, i32 6
  store %struct.student* %36, %struct.student** %38, align 8
  %39 = load %struct.student*, %struct.student** %5, align 8
  store %struct.student* %39, %struct.student** %6, align 8
  %40 = load %struct.student*, %struct.student** %5, align 8
  store %struct.student* %40, %struct.student** %9, align 8
  br label %41

41:                                               ; preds = %35, %30
  br label %42

42:                                               ; preds = %41
  %43 = load %struct.student*, %struct.student** %5, align 8
  %44 = getelementptr inbounds %struct.student, %struct.student* %43, i32 0, i32 1
  %45 = getelementptr inbounds [20 x i8], [20 x i8]* %44, i64 0, i64 0
  %46 = call i32 (i8*, ...) @__isoc99_scanf(i8* getelementptr inbounds ([3 x i8], [3 x i8]* @.str, i64 0, i64 0), i8* %45)
  %47 = load %struct.student*, %struct.student** %5, align 8
  %48 = getelementptr inbounds %struct.student, %struct.student* %47, i32 0, i32 2
  %49 = getelementptr inbounds [2 x i8], [2 x i8]* %48, i64 0, i64 0
  %50 = call i32 (i8*, ...) @__isoc99_scanf(i8* getelementptr inbounds ([3 x i8], [3 x i8]* @.str, i64 0, i64 0), i8* %49)
  %51 = load %struct.student*, %struct.student** %5, align 8
  %52 = getelementptr inbounds %struct.student, %struct.student* %51, i32 0, i32 3
  %53 = call i32 (i8*, ...) @__isoc99_scanf(i8* getelementptr inbounds ([3 x i8], [3 x i8]* @.str.2, i64 0, i64 0), i32* %52)
  %54 = load %struct.student*, %struct.student** %5, align 8
  %55 = getelementptr inbounds %struct.student, %struct.student* %54, i32 0, i32 4
  %56 = getelementptr inbounds [10 x i8], [10 x i8]* %55, i64 0, i64 0
  %57 = call i32 (i8*, ...) @__isoc99_scanf(i8* getelementptr inbounds ([3 x i8], [3 x i8]* @.str, i64 0, i64 0), i8* %56)
  %58 = load %struct.student*, %struct.student** %5, align 8
  %59 = getelementptr inbounds %struct.student, %struct.student* %58, i32 0, i32 5
  %60 = getelementptr inbounds [20 x i8], [20 x i8]* %59, i64 0, i64 0
  %61 = call i32 (i8*, ...) @__isoc99_scanf(i8* getelementptr inbounds ([3 x i8], [3 x i8]* @.str, i64 0, i64 0), i8* %60)
  %62 = load i32, i32* %3, align 4
  %63 = add nsw i32 %62, 1
  store i32 %63, i32* %3, align 4
  br label %64

64:                                               ; preds = %42
  %65 = load i32, i32* %2, align 4
  %66 = add nsw i32 %65, 1
  store i32 %66, i32* %2, align 4
  br label %10

67:                                               ; preds = %25, %10
  store i32 1, i32* %2, align 4
  br label %68

68:                                               ; preds = %104, %67
  %69 = load i32, i32* %2, align 4
  %70 = load i32, i32* %3, align 4
  %71 = icmp sle i32 %69, %70
  br i1 %71, label %72, label %107

72:                                               ; preds = %68
  %73 = load i32, i32* %2, align 4
  %74 = icmp eq i32 %73, 1
  br i1 %74, label %75, label %77

75:                                               ; preds = %72
  %76 = load %struct.student*, %struct.student** %4, align 8
  store %struct.student* %76, %struct.student** %7, align 8
  br label %77

77:                                               ; preds = %75, %72
  %78 = load %struct.student*, %struct.student** %7, align 8
  %79 = getelementptr inbounds %struct.student, %struct.student* %78, i32 0, i32 0
  %80 = getelementptr inbounds [10 x i8], [10 x i8]* %79, i64 0, i64 0
  %81 = load %struct.student*, %struct.student** %7, align 8
  %82 = getelementptr inbounds %struct.student, %struct.student* %81, i32 0, i32 1
  %83 = getelementptr inbounds [20 x i8], [20 x i8]* %82, i64 0, i64 0
  %84 = load %struct.student*, %struct.student** %7, align 8
  %85 = getelementptr inbounds %struct.student, %struct.student* %84, i32 0, i32 2
  %86 = getelementptr inbounds [2 x i8], [2 x i8]* %85, i64 0, i64 0
  %87 = load %struct.student*, %struct.student** %7, align 8
  %88 = getelementptr inbounds %struct.student, %struct.student* %87, i32 0, i32 3
  %89 = load i32, i32* %88, align 8
  %90 = load %struct.student*, %struct.student** %7, align 8
  %91 = getelementptr inbounds %struct.student, %struct.student* %90, i32 0, i32 4
  %92 = getelementptr inbounds [10 x i8], [10 x i8]* %91, i64 0, i64 0
  %93 = load %struct.student*, %struct.student** %7, align 8
  %94 = getelementptr inbounds %struct.student, %struct.student* %93, i32 0, i32 5
  %95 = getelementptr inbounds [20 x i8], [20 x i8]* %94, i64 0, i64 0
  %96 = call i32 (i8*, ...) @printf(i8* getelementptr inbounds ([19 x i8], [19 x i8]* @.str.3, i64 0, i64 0), i8* %80, i8* %83, i8* %86, i32 %89, i8* %92, i8* %95)
  %97 = load %struct.student*, %struct.student** %7, align 8
  %98 = getelementptr inbounds %struct.student, %struct.student* %97, i32 0, i32 6
  %99 = load %struct.student*, %struct.student** %98, align 8
  store %struct.student* %99, %struct.student** %7, align 8
  %100 = load %struct.student*, %struct.student** %7, align 8
  %101 = icmp eq %struct.student* %100, null
  br i1 %101, label %102, label %103

102:                                              ; preds = %77
  br label %107

103:                                              ; preds = %77
  br label %104

104:                                              ; preds = %103
  %105 = load i32, i32* %2, align 4
  %106 = add nsw i32 %105, 1
  store i32 %106, i32* %2, align 4
  br label %68

107:                                              ; preds = %102, %68
  ret i32 0
}

; Function Attrs: nounwind
declare dso_local noalias i8* @malloc(i64) #1

declare dso_local i32 @__isoc99_scanf(i8*, ...) #2

; Function Attrs: nounwind readonly
declare dso_local i32 @strcmp(i8*, i8*) #3

declare dso_local i32 @printf(i8*, ...) #2


!llvm.module.flags = !{!0}
!llvm.ident = !{!1}

!0 = !{i32 1, !"wchar_size", i32 4}
!1 = !{!"clang version 10.0.0-4ubuntu1 "}
